target datalayout = "e-m:e-p270:32:32-p271:32:32-p272:64:64-i64:64-i128:128-f80:128-n8:16:32:64-S128"
target triple = "x86_64-pc-linux-gnu"

%"class.i18n::phonenumbers::LoggerHandler" = type { ptr }
%"class.i18n::phonenumbers::Logger" = type <{ ptr, i32, [4 x i8] }>

@.str = private unnamed_addr constant [29 x i8] c"Could not parse binary data.\00", align 1
@_ZN4i18n12phonenumbers6Logger5impl_E = external global ptr, align 8

; Function Attrs: mustprogress nounwind uwtable
define linkonce_odr dso_local void @_ZN4i18n12phonenumbers13LoggerHandlerC2EPNS0_6LoggerE(ptr noundef nonnull align 8 dereferenceable(8) %0, ptr noundef %1) unnamed_addr #7 comdat align 2 {
  %3 = alloca ptr, align 8
  %4 = alloca ptr, align 8
  store ptr %0, ptr %3, align 8, !tbaa !15
  store ptr %1, ptr %4, align 8, !tbaa !11
  %5 = load ptr, ptr %3, align 8
  %6 = getelementptr inbounds nuw %"class.i18n::phonenumbers::LoggerHandler", ptr %5, i32 0, i32 0
  %7 = load ptr, ptr %4, align 8, !tbaa !11
  store ptr %7, ptr %6, align 8, !tbaa !19
  ret void
}

; Function Attrs: inlinehint mustprogress nounwind uwtable
define linkonce_odr dso_local noundef i32 @_ZNK4i18n12phonenumbers6Logger5levelEv(ptr noundef nonnull align 8 dereferenceable(12) %0) #10 comdat align 2 {
  %2 = alloca ptr, align 8
  store ptr %0, ptr %2, align 8, !tbaa !11
  %3 = load ptr, ptr %2, align 8
  %4 = getelementptr inbounds nuw %"class.i18n::phonenumbers::Logger", ptr %3, i32 0, i32 1
  %5 = load i32, ptr %4, align 8, !tbaa !111
  ret i32 %5
}

; Function Attrs: inlinehint mustprogress nounwind uwtable
define linkonce_odr dso_local noundef ptr @_ZN4i18n12phonenumbers6Logger19mutable_logger_implEv() #10 comdat align 2 {
  %1 = load ptr, ptr @_ZN4i18n12phonenumbers6Logger5impl_E, align 8, !tbaa !11
  ret ptr %1
}

; Function Attrs: inlinehint mustprogress uwtable
define linkonce_odr dso_local void @_ZN4i18n12phonenumbers3LOGEi(ptr dead_on_unwind noalias writable sret(%"class.i18n::phonenumbers::LoggerHandler") align 8 %0, i32 noundef %1) #6 comdat {
  %3 = alloca ptr, align 8
  %4 = alloca i32, align 4
  %5 = alloca ptr, align 8
  %6 = alloca i32, align 4
  store ptr %0, ptr %3, align 8
  store i32 %1, ptr %4, align 4, !tbaa !9
  call void @llvm.lifetime.start.p0(i64 8, ptr %5) #3
  %7 = call noundef ptr @_ZN4i18n12phonenumbers6Logger19mutable_logger_implEv()
  store ptr %7, ptr %5, align 8, !tbaa !11
  %8 = load ptr, ptr %5, align 8, !tbaa !11
  %9 = call noundef i32 @_ZNK4i18n12phonenumbers6Logger5levelEv(ptr noundef nonnull align 8 dereferenceable(12) %8)
  %10 = load i32, ptr %4, align 4, !tbaa !9
  %11 = icmp slt i32 %9, %10
  br i1 %11, label %12, label %13

12:                                               ; preds = %2
  call void @_ZN4i18n12phonenumbers13LoggerHandlerC2EPNS0_6LoggerE(ptr noundef nonnull align 8 dereferenceable(8) %0, ptr noundef null)
  store i32 1, ptr %6, align 4
  br label %19

13:                                               ; preds = %2
  %14 = load ptr, ptr %5, align 8, !tbaa !11
  %15 = load ptr, ptr %14, align 8, !tbaa !13
  %16 = getelementptr inbounds ptr, ptr %15, i64 2
  %17 = load ptr, ptr %16, align 8
  call void %17(ptr noundef nonnull align 8 dereferenceable(12) %14)
  %18 = load ptr, ptr %5, align 8, !tbaa !11
  call void @_ZN4i18n12phonenumbers13LoggerHandlerC2EPNS0_6LoggerE(ptr noundef nonnull align 8 dereferenceable(8) %0, ptr noundef %18)
  store i32 1, ptr %6, align 4
  br label %19

19:                                               ; preds = %13, %12
  call void @llvm.lifetime.end.p0(i64 8, ptr %5) #3
  ret void
}

; Function Attrs: mustprogress uwtable
define dso_local noundef zeroext i1 @_ZN4i18n12phonenumbers22LoadCompiledInMetadataEPNS0_23PhoneMetadataCollectionE(ptr noundef %0) #4 personality ptr @__gxx_personality_v0 {
  %2 = alloca i1, align 1
  %3 = alloca ptr, align 8
  %4 = alloca %"class.i18n::phonenumbers::LoggerHandler", align 8
  %5 = alloca ptr, align 8
  %6 = alloca i32, align 4
  store ptr %0, ptr %3, align 8, !tbaa !4
  %7 = load ptr, ptr %3, align 8, !tbaa !4
  %8 = call noundef ptr @_ZN4i18n12phonenumbers18short_metadata_getEv()
  %9 = call noundef i32 @_ZN4i18n12phonenumbers19short_metadata_sizeEv()
  %10 = call noundef zeroext i1 @_ZN6google8protobuf11MessageLite14ParseFromArrayEPKvi(ptr noundef nonnull align 8 dereferenceable(16) %7, ptr noundef %8, i32 noundef %9)
  br i1 %10, label %18, label %11

11:                                               ; preds = %1
  call void @llvm.lifetime.start.p0(i64 8, ptr %4) #3
  call void @_ZN4i18n12phonenumbers3LOGEi(ptr dead_on_unwind writable sret(%"class.i18n::phonenumbers::LoggerHandler") align 8 %4, i32 noundef 2)
  %12 = invoke noundef nonnull align 8 dereferenceable(8) ptr @_ZN4i18n12phonenumbers13LoggerHandlerlsIA29_cEERS1_RKT_(ptr noundef nonnull align 8 dereferenceable(8) %4, ptr noundef nonnull align 1 dereferenceable(29) @.str)
          to label %13 unwind label %14

13:                                               ; preds = %11
  call void @_ZN4i18n12phonenumbers13LoggerHandlerD2Ev(ptr noundef nonnull align 8 dereferenceable(8) %4) #3
  call void @llvm.lifetime.end.p0(i64 8, ptr %4) #3
  store i1 false, ptr %2, align 1
  br label %19

14:                                               ; preds = %11
  %15 = landingpad { ptr, i32 }
          cleanup
  %16 = extractvalue { ptr, i32 } %15, 0
  store ptr %16, ptr %5, align 8
  %17 = extractvalue { ptr, i32 } %15, 1
  store i32 %17, ptr %6, align 4
  call void @_ZN4i18n12phonenumbers13LoggerHandlerD2Ev(ptr noundef nonnull align 8 dereferenceable(8) %4) #3
  call void @llvm.lifetime.end.p0(i64 8, ptr %4) #3
  br label %21

18:                                               ; preds = %1
  store i1 true, ptr %2, align 1
  br label %19

19:                                               ; preds = %18, %13
  %20 = load i1, ptr %2, align 1
  ret i1 %20

21:                                               ; preds = %14
  %22 = load ptr, ptr %5, align 8
  %23 = load i32, ptr %6, align 4
  %24 = insertvalue { ptr, i32 } poison, ptr %22, 0
  %25 = insertvalue { ptr, i32 } %24, i32 %23, 1
  resume { ptr, i32 } %25
}