; Function Attrs: mustprogress uwtable
define dso_local noundef zeroext i1 @_ZN4i18n12phonenumbers22LoadCompiledInMetadataEPNS0_23PhoneMetadataCollectionE(ptr noundef %0) local_unnamed_addr #3 personality ptr @__gxx_personality_v0 {
  %2 = alloca %"class.std::__cxx11::basic_string", align 8
  %3 = alloca %"class.i18n::phonenumbers::LoggerHandler", align 8
  %4 = tail call noundef ptr @_ZN4i18n12phonenumbers18short_metadata_getEv()
  %5 = tail call noundef i32 @_ZN4i18n12phonenumbers19short_metadata_sizeEv()
  %6 = tail call noundef zeroext i1 @_ZN6google8protobuf11MessageLite14ParseFromArrayEPKvi(ptr noundef nonnull align 8 dereferenceable(16) %0, ptr noundef %4, i32 noundef %5)
  br i1 %6, label %37, label %7

7:                                                ; preds = %1
  call void @llvm.lifetime.start.p0(i64 8, ptr nonnull %3) #25
  tail call void @llvm.experimental.noalias.scope.decl(metadata !4)
  %8 = load ptr, ptr @_ZN4i18n12phonenumbers6Logger5impl_E, align 8, !tbaa !7, !noalias !4
  %9 = getelementptr inbounds nuw i8, ptr %8, i64 8
  %10 = load i32, ptr %9, align 8, !tbaa !12, !noalias !4
  %11 = icmp slt i32 %10, 2
  br i1 %11, label %_ZN4i18n12phonenumbers3LOGEi.exit, label %12

12:                                               ; preds = %7
  %13 = load ptr, ptr %8, align 8, !tbaa !15, !noalias !4
  %14 = getelementptr inbounds nuw i8, ptr %13, i64 16
  %15 = load ptr, ptr %14, align 8, !noalias !4
  tail call void %15(ptr noundef nonnull align 8 dereferenceable(12) %8), !noalias !4
  br label %_ZN4i18n12phonenumbers3LOGEi.exit

_ZN4i18n12phonenumbers3LOGEi.exit:                ; preds = %7, %12
  %storemerge.i = phi ptr [ %8, %12 ], [ null, %7 ]
  store ptr %storemerge.i, ptr %3, align 8, !tbaa !17, !alias.scope !4
  %16 = invoke noundef nonnull align 8 dereferenceable(8) ptr @_ZN4i18n12phonenumbers13LoggerHandlerlsIA29_cEERS1_RKT_(ptr noundef nonnull align 8 dereferenceable(8) %3, ptr noundef nonnull align 1 dereferenceable(29) @.str)
          to label %17 unwind label %35

17:                                               ; preds = %_ZN4i18n12phonenumbers3LOGEi.exit
  %18 = load ptr, ptr %3, align 8, !tbaa !17
  %.not.i = icmp eq ptr %18, null
  br i1 %.not.i, label %_ZN4i18n12phonenumbers13LoggerHandlerD2Ev.exit, label %._crit_edge.i.i.i

._crit_edge.i.i.i:                                ; preds = %17
  call void @llvm.lifetime.start.p0(i64 32, ptr nonnull %2) #25
  %19 = getelementptr inbounds nuw i8, ptr %2, i64 16
  store ptr %19, ptr %2, align 8, !tbaa !19
  store i8 10, ptr %19, align 8, !tbaa !22
  %20 = getelementptr inbounds nuw i8, ptr %2, i64 8
  store i64 1, ptr %20, align 8, !tbaa !23
  %21 = getelementptr inbounds nuw i8, ptr %2, i64 17
  store i8 0, ptr %21, align 1, !tbaa !22
  %22 = load ptr, ptr %18, align 8, !tbaa !15
  %23 = getelementptr inbounds nuw i8, ptr %22, i64 24
  %24 = load ptr, ptr %23, align 8
  invoke void %24(ptr noundef nonnull align 8 dereferenceable(12) %18, ptr noundef nonnull align 8 dereferenceable(32) %2)
          to label %25 unwind label %32

25:                                               ; preds = %._crit_edge.i.i.i
  %26 = load ptr, ptr %2, align 8, !tbaa !26
  %27 = icmp eq ptr %26, %19
  br i1 %27, label %_ZNKSt7__cxx1112basic_stringIcSt11char_traitsIcESaIcEE11_M_is_localEv.exit.thread.i.i.i, label %_ZNKSt7__cxx1112basic_stringIcSt11char_traitsIcESaIcEE11_M_is_localEv.exit.i.i.i

_ZNKSt7__cxx1112basic_stringIcSt11char_traitsIcESaIcEE11_M_is_localEv.exit.thread.i.i.i: ; preds = %25
  %28 = load i64, ptr %20, align 8, !tbaa !23
  %29 = icmp ult i64 %28, 16
  call void @llvm.assume(i1 %29)
  br label %_ZNSt7__cxx1112basic_stringIcSt11char_traitsIcESaIcEED2Ev.exit.i

_ZNKSt7__cxx1112basic_stringIcSt11char_traitsIcESaIcEE11_M_is_localEv.exit.i.i.i: ; preds = %25
  %30 = load i64, ptr %19, align 8, !tbaa !22
  %31 = add i64 %30, 1
  call void @_ZdlPvm(ptr noundef %26, i64 noundef %31) #26
  br label %_ZNSt7__cxx1112basic_stringIcSt11char_traitsIcESaIcEED2Ev.exit.i

_ZNSt7__cxx1112basic_stringIcSt11char_traitsIcESaIcEED2Ev.exit.i: ; preds = %_ZNKSt7__cxx1112basic_stringIcSt11char_traitsIcESaIcEE11_M_is_localEv.exit.i.i.i, %_ZNKSt7__cxx1112basic_stringIcSt11char_traitsIcESaIcEE11_M_is_localEv.exit.thread.i.i.i
  call void @llvm.lifetime.end.p0(i64 32, ptr nonnull %2) #25
  br label %_ZN4i18n12phonenumbers13LoggerHandlerD2Ev.exit

32:                                               ; preds = %._crit_edge.i.i.i
  %33 = landingpad { ptr, i32 }
          catch ptr null
  %34 = extractvalue { ptr, i32 } %33, 0
  call void @__clang_call_terminate(ptr %34) #27
  unreachable

_ZN4i18n12phonenumbers13LoggerHandlerD2Ev.exit:   ; preds = %17, %_ZNSt7__cxx1112basic_stringIcSt11char_traitsIcESaIcEED2Ev.exit.i
  call void @llvm.lifetime.end.p0(i64 8, ptr nonnull %3) #25
  br label %37

35:                                               ; preds = %_ZN4i18n12phonenumbers3LOGEi.exit
  %36 = landingpad { ptr, i32 }
          cleanup
  call void @_ZN4i18n12phonenumbers13LoggerHandlerD2Ev(ptr noundef nonnull align 8 dereferenceable(8) %3) #25
  call void @llvm.lifetime.end.p0(i64 8, ptr nonnull %3) #25
  resume { ptr, i32 } %36

37:                                               ; preds = %1, %_ZN4i18n12phonenumbers13LoggerHandlerD2Ev.exit
  ret i1 %6
}